; Function Attrs: nofree norecurse nosync nounwind memory(argmem: read) uwtable
define internal i32 @hadamard8_intra16_c(ptr noundef readnone captures(none) %0, ptr noundef readonly captures(none) %1, ptr noundef readnone captures(none) %2, i64 noundef %3, i32 noundef %4) #5 {
  %6 = tail call i32 @hadamard8_intra8x8_c(ptr poison, ptr noundef %1, ptr poison, i64 noundef %3, i32 poison)
  %7 = getelementptr inbounds nuw i8, ptr %1, i64 8
  %8 = tail call i32 @hadamard8_intra8x8_c(ptr poison, ptr noundef nonnull %7, ptr nonnull poison, i64 noundef %3, i32 poison)
  %9 = add nsw i32 %8, %6
  %10 = icmp eq i32 %4, 16
  br i1 %10, label %11, label %19

11:                                               ; preds = %5
  %12 = shl nsw i64 %3, 3
  %13 = getelementptr inbounds i8, ptr %1, i64 %12
  %14 = tail call i32 @hadamard8_intra8x8_c(ptr poison, ptr noundef %13, ptr poison, i64 noundef %3, i32 poison)
  %15 = add nsw i32 %14, %9
  %16 = getelementptr inbounds nuw i8, ptr %13, i64 8
  %17 = tail call i32 @hadamard8_intra8x8_c(ptr poison, ptr noundef nonnull %16, ptr nonnull poison, i64 noundef %3, i32 poison)
  %18 = add nsw i32 %15, %17
  br label %19

19:                                               ; preds = %11, %5
  %.0 = phi i32 [ %18, %11 ], [ %9, %5 ]
  ret i32 %.0
}